target datalayout = "e-m:e-p270:32:32-p271:32:32-p272:64:64-i64:64-i128:128-f80:128-n8:16:32:64-S128"
target triple = "x86_64-pc-linux-gnu"

%"struct.duckdb_zstd::ZSTD_customMem" = type { ptr, ptr, ptr }
%"struct.duckdb_zstd::ZSTD_frameParameters" = type { i32, i32, i32 }
%"struct.duckdb_zstd::ZSTD_compressionParameters" = type { i32, i32, i32, i32, i32, i32, i32 }
%"struct.duckdb_zstd::ZSTD_CCtx_s" = type { i32, i32, i32, %"struct.duckdb_zstd::ZSTD_CCtx_params_s", %"struct.duckdb_zstd::ZSTD_CCtx_params_s", %"struct.duckdb_zstd::ZSTD_CCtx_params_s", i32, i64, %"struct.duckdb_zstd::ZSTD_cwksp", i64, i64, i64, i64, %"struct.duckdb_zstd::XXH64_state_s", %"struct.duckdb_zstd::ZSTD_customMem", ptr, i64, %"struct.duckdb_zstd::SeqCollector", i32, i32, %"struct.duckdb_zstd::seqStore_t", %"struct.duckdb_zstd::ldmState_t", ptr, i64, %"struct.duckdb_zstd::rawSeqStore_t", %"struct.duckdb_zstd::ZSTD_blockState_t", ptr, i32, ptr, i64, i64, i64, i64, ptr, i64, i64, i64, i32, i32, %"struct.duckdb_zstd::ZSTD_inBuffer_s", i64, i64, %"struct.duckdb_zstd::ZSTD_localDict", ptr, %"struct.duckdb_zstd::ZSTD_prefixDict_s", i64, %"struct.duckdb_zstd::ZSTD_blockSplitCtx", ptr, i64 }
%"struct.duckdb_zstd::ZSTD_CCtx_params_s" = type { i32, %"struct.duckdb_zstd::ZSTD_compressionParameters", %"struct.duckdb_zstd::ZSTD_frameParameters", i32, i32, i64, i32, i32, i32, i32, i64, i32, i32, %"struct.duckdb_zstd::ldmParams_t", i32, i32, i32, i32, i32, i32, i32, i32, %"struct.duckdb_zstd::ZSTD_customMem", i32, i32, ptr, ptr, i64, i32 }
%"struct.duckdb_zstd::ldmParams_t" = type { i32, i32, i32, i32, i32, i32 }
%"struct.duckdb_zstd::ZSTD_cwksp" = type { ptr, ptr, ptr, ptr, ptr, ptr, ptr, i8, i32, i32, i32 }
%"struct.duckdb_zstd::XXH64_state_s" = type { i64, i64, i64, i64, i64, [4 x i64], i32, [2 x i32] }
%"struct.duckdb_zstd::SeqCollector" = type { i32, ptr, i64, i64 }
%"struct.duckdb_zstd::seqStore_t" = type { ptr, ptr, ptr, ptr, ptr, ptr, ptr, i64, i64, i32, i32 }
%"struct.duckdb_zstd::ldmState_t" = type { %"struct.duckdb_zstd::ZSTD_window_t", ptr, i32, ptr, [64 x i64], [64 x %"struct.duckdb_zstd::ldmMatchCandidate_t"] }
%"struct.duckdb_zstd::ZSTD_window_t" = type { ptr, ptr, ptr, i32, i32, i32 }
%"struct.duckdb_zstd::ldmMatchCandidate_t" = type { ptr, i32, i32, ptr }
%"struct.duckdb_zstd::rawSeqStore_t" = type { ptr, i64, i64, i64, i64 }
%"struct.duckdb_zstd::ZSTD_blockState_t" = type { ptr, ptr, %"struct.duckdb_zstd::ZSTD_matchState_t" }
%"struct.duckdb_zstd::ZSTD_matchState_t" = type { %"struct.duckdb_zstd::ZSTD_window_t", i32, i32, i32, i32, ptr, [8 x i32], i64, i32, ptr, ptr, ptr, i32, i32, %"struct.duckdb_zstd::optState_t", ptr, %"struct.duckdb_zstd::ZSTD_compressionParameters", ptr, i32, i32 }
%"struct.duckdb_zstd::optState_t" = type { ptr, ptr, ptr, ptr, ptr, ptr, i32, i32, i32, i32, i32, i32, i32, i32, i32, ptr, i32 }
%"struct.duckdb_zstd::ZSTD_inBuffer_s" = type { ptr, i64, i64 }
%"struct.duckdb_zstd::ZSTD_localDict" = type { ptr, ptr, i64, i32, ptr }
%"struct.duckdb_zstd::ZSTD_prefixDict_s" = type { ptr, i64, i32 }
%"struct.duckdb_zstd::ZSTD_blockSplitCtx" = type { %"struct.duckdb_zstd::seqStore_t", %"struct.duckdb_zstd::seqStore_t", %"struct.duckdb_zstd::seqStore_t", %"struct.duckdb_zstd::seqStore_t", %"struct.duckdb_zstd::seqStore_t", [196 x i32], %"struct.duckdb_zstd::ZSTD_entropyCTablesMetadata_t" }
%"struct.duckdb_zstd::ZSTD_entropyCTablesMetadata_t" = type { %"struct.duckdb_zstd::ZSTD_hufCTablesMetadata_t", %"struct.duckdb_zstd::ZSTD_fseCTablesMetadata_t" }
%"struct.duckdb_zstd::ZSTD_hufCTablesMetadata_t" = type { i32, [128 x i8], i64 }
%"struct.duckdb_zstd::ZSTD_fseCTablesMetadata_t" = type { i32, i32, i32, [133 x i8], i64, i64 }
%"struct.duckdb_zstd::seqStoreSplits" = type { ptr, i64 }

; Function Attrs: mustprogress nounwind uwtable
define internal noundef i32 @_ZN11duckdb_zstdL11ERR_isErrorEm(i64 noundef %0) #0 {
  %2 = alloca i64, align 8
  store i64 %0, ptr %2, align 8, !tbaa !3
  %3 = load i64, ptr %2, align 8, !tbaa !3
  %4 = icmp ugt i64 %3, -120
  %5 = zext i1 %4 to i32
  ret i32 %5
}

; Function Attrs: mustprogress uwtable
define internal void @_ZN11duckdb_zstdL28ZSTD_deriveBlockSplitsHelperEPNS_14seqStoreSplitsEmmPNS_11ZSTD_CCtx_sEPKNS_10seqStore_tE(ptr noundef %0, i64 noundef %1, i64 noundef %2, ptr noundef %3, ptr noundef %4) #2 {
  %6 = alloca ptr, align 8
  %7 = alloca i64, align 8
  %8 = alloca i64, align 8
  %9 = alloca ptr, align 8
  %10 = alloca ptr, align 8
  %11 = alloca ptr, align 8
  %12 = alloca ptr, align 8
  %13 = alloca ptr, align 8
  %14 = alloca i64, align 8
  %15 = alloca i64, align 8
  %16 = alloca i64, align 8
  %17 = alloca i64, align 8
  %18 = alloca i32, align 4
  store ptr %0, ptr %6, align 8, !tbaa !8
  store i64 %1, ptr %7, align 8, !tbaa !3
  store i64 %2, ptr %8, align 8, !tbaa !3
  store ptr %3, ptr %9, align 8, !tbaa !13
  store ptr %4, ptr %10, align 8, !tbaa !8
  call void @llvm.lifetime.start.p0(i64 8, ptr %11) #16
  %19 = load ptr, ptr %9, align 8, !tbaa !13
  %20 = getelementptr inbounds nuw %"struct.duckdb_zstd::ZSTD_CCtx_s", ptr %19, i32 0, i32 46
  %21 = getelementptr inbounds nuw %"struct.duckdb_zstd::ZSTD_blockSplitCtx", ptr %20, i32 0, i32 0
  store ptr %21, ptr %11, align 8, !tbaa !8
  call void @llvm.lifetime.start.p0(i64 8, ptr %12) #16
  %22 = load ptr, ptr %9, align 8, !tbaa !13
  %23 = getelementptr inbounds nuw %"struct.duckdb_zstd::ZSTD_CCtx_s", ptr %22, i32 0, i32 46
  %24 = getelementptr inbounds nuw %"struct.duckdb_zstd::ZSTD_blockSplitCtx", ptr %23, i32 0, i32 1
  store ptr %24, ptr %12, align 8, !tbaa !8
  call void @llvm.lifetime.start.p0(i64 8, ptr %13) #16
  %25 = load ptr, ptr %9, align 8, !tbaa !13
  %26 = getelementptr inbounds nuw %"struct.duckdb_zstd::ZSTD_CCtx_s", ptr %25, i32 0, i32 46
  %27 = getelementptr inbounds nuw %"struct.duckdb_zstd::ZSTD_blockSplitCtx", ptr %26, i32 0, i32 2
  store ptr %27, ptr %13, align 8, !tbaa !8
  call void @llvm.lifetime.start.p0(i64 8, ptr %14) #16
  call void @llvm.lifetime.start.p0(i64 8, ptr %15) #16
  call void @llvm.lifetime.start.p0(i64 8, ptr %16) #16
  call void @llvm.lifetime.start.p0(i64 8, ptr %17) #16
  %28 = load i64, ptr %7, align 8, !tbaa !3
  %29 = load i64, ptr %8, align 8, !tbaa !3
  %30 = add i64 %28, %29
  %31 = udiv i64 %30, 2
  store i64 %31, ptr %17, align 8, !tbaa !3
  br label %32

32:                                               ; preds = %5
  br label %33

33:                                               ; preds = %32
  br label %34

34:                                               ; preds = %33
  %35 = load i64, ptr %8, align 8, !tbaa !3
  %36 = load i64, ptr %7, align 8, !tbaa !3
  %37 = sub i64 %35, %36
  %38 = icmp ult i64 %37, 300
  br i1 %38, label %44, label %39

39:                                               ; preds = %34
  %40 = load ptr, ptr %6, align 8, !tbaa !8
  %41 = getelementptr inbounds nuw %"struct.duckdb_zstd::seqStoreSplits", ptr %40, i32 0, i32 1
  %42 = load i64, ptr %41, align 8, !tbaa !455
  %43 = icmp uge i64 %42, 196
  br i1 %43, label %44, label %48

44:                                               ; preds = %39, %34
  br label %45

45:                                               ; preds = %44
  br label %46

46:                                               ; preds = %45
  br label %47

47:                                               ; preds = %46
  store i32 1, ptr %18, align 4
  br label %119

48:                                               ; preds = %39
  %49 = load ptr, ptr %11, align 8, !tbaa !8
  %50 = load ptr, ptr %10, align 8, !tbaa !8
  %51 = load i64, ptr %7, align 8, !tbaa !3
  %52 = load i64, ptr %8, align 8, !tbaa !3
  call void @_ZN11duckdb_zstdL24ZSTD_deriveSeqStoreChunkEPNS_10seqStore_tEPKS0_mm(ptr noundef %49, ptr noundef %50, i64 noundef %51, i64 noundef %52)
  %53 = load ptr, ptr %12, align 8, !tbaa !8
  %54 = load ptr, ptr %10, align 8, !tbaa !8
  %55 = load i64, ptr %7, align 8, !tbaa !3
  %56 = load i64, ptr %17, align 8, !tbaa !3
  call void @_ZN11duckdb_zstdL24ZSTD_deriveSeqStoreChunkEPNS_10seqStore_tEPKS0_mm(ptr noundef %53, ptr noundef %54, i64 noundef %55, i64 noundef %56)
  %57 = load ptr, ptr %13, align 8, !tbaa !8
  %58 = load ptr, ptr %10, align 8, !tbaa !8
  %59 = load i64, ptr %17, align 8, !tbaa !3
  %60 = load i64, ptr %8, align 8, !tbaa !3
  call void @_ZN11duckdb_zstdL24ZSTD_deriveSeqStoreChunkEPNS_10seqStore_tEPKS0_mm(ptr noundef %57, ptr noundef %58, i64 noundef %59, i64 noundef %60)
  %61 = load ptr, ptr %11, align 8, !tbaa !8
  %62 = load ptr, ptr %9, align 8, !tbaa !13
  %63 = call noundef i64 @_ZN11duckdb_zstdL50ZSTD_buildEntropyStatisticsAndEstimateSubBlockSizeEPNS_10seqStore_tEPNS_11ZSTD_CCtx_sE(ptr noundef %61, ptr noundef %62)
  store i64 %63, ptr %14, align 8, !tbaa !3
  %64 = load ptr, ptr %12, align 8, !tbaa !8
  %65 = load ptr, ptr %9, align 8, !tbaa !13
  %66 = call noundef i64 @_ZN11duckdb_zstdL50ZSTD_buildEntropyStatisticsAndEstimateSubBlockSizeEPNS_10seqStore_tEPNS_11ZSTD_CCtx_sE(ptr noundef %64, ptr noundef %65)
  store i64 %66, ptr %15, align 8, !tbaa !3
  %67 = load ptr, ptr %13, align 8, !tbaa !8
  %68 = load ptr, ptr %9, align 8, !tbaa !13
  %69 = call noundef i64 @_ZN11duckdb_zstdL50ZSTD_buildEntropyStatisticsAndEstimateSubBlockSizeEPNS_10seqStore_tEPNS_11ZSTD_CCtx_sE(ptr noundef %67, ptr noundef %68)
  store i64 %69, ptr %16, align 8, !tbaa !3
  br label %70

70:                                               ; preds = %48
  br label %71

71:                                               ; preds = %70
  br label %72

72:                                               ; preds = %71
  %73 = load i64, ptr %14, align 8, !tbaa !3
  %74 = call noundef i32 @_ZN11duckdb_zstdL11ERR_isErrorEm(i64 noundef %73)
  %75 = icmp ne i32 %74, 0
  br i1 %75, label %84, label %76

76:                                               ; preds = %72
  %77 = load i64, ptr %15, align 8, !tbaa !3
  %78 = call noundef i32 @_ZN11duckdb_zstdL11ERR_isErrorEm(i64 noundef %77)
  %79 = icmp ne i32 %78, 0
  br i1 %79, label %84, label %80

80:                                               ; preds = %76
  %81 = load i64, ptr %16, align 8, !tbaa !3
  %82 = call noundef i32 @_ZN11duckdb_zstdL11ERR_isErrorEm(i64 noundef %81)
  %83 = icmp ne i32 %82, 0
  br i1 %83, label %84, label %85

84:                                               ; preds = %80, %76, %72
  store i32 1, ptr %18, align 4
  br label %119

85:                                               ; preds = %80
  %86 = load i64, ptr %15, align 8, !tbaa !3
  %87 = load i64, ptr %16, align 8, !tbaa !3
  %88 = add i64 %86, %87
  %89 = load i64, ptr %14, align 8, !tbaa !3
  %90 = icmp ult i64 %88, %89
  br i1 %90, label %91, label %118

91:                                               ; preds = %85
  br label %92

92:                                               ; preds = %91
  br label %93

93:                                               ; preds = %92
  br label %94

94:                                               ; preds = %93
  %95 = load ptr, ptr %6, align 8, !tbaa !8
  %96 = load i64, ptr %7, align 8, !tbaa !3
  %97 = load i64, ptr %17, align 8, !tbaa !3
  %98 = load ptr, ptr %9, align 8, !tbaa !13
  %99 = load ptr, ptr %10, align 8, !tbaa !8
  call void @_ZN11duckdb_zstdL28ZSTD_deriveBlockSplitsHelperEPNS_14seqStoreSplitsEmmPNS_11ZSTD_CCtx_sEPKNS_10seqStore_tE(ptr noundef %95, i64 noundef %96, i64 noundef %97, ptr noundef %98, ptr noundef %99)
  %100 = load i64, ptr %17, align 8, !tbaa !3
  %101 = trunc i64 %100 to i32
  %102 = load ptr, ptr %6, align 8, !tbaa !8
  %103 = getelementptr inbounds nuw %"struct.duckdb_zstd::seqStoreSplits", ptr %102, i32 0, i32 0
  %104 = load ptr, ptr %103, align 8, !tbaa !453
  %105 = load ptr, ptr %6, align 8, !tbaa !8
  %106 = getelementptr inbounds nuw %"struct.duckdb_zstd::seqStoreSplits", ptr %105, i32 0, i32 1
  %107 = load i64, ptr %106, align 8, !tbaa !455
  %108 = getelementptr inbounds nuw i32, ptr %104, i64 %107
  store i32 %101, ptr %108, align 4, !tbaa !79
  %109 = load ptr, ptr %6, align 8, !tbaa !8
  %110 = getelementptr inbounds nuw %"struct.duckdb_zstd::seqStoreSplits", ptr %109, i32 0, i32 1
  %111 = load i64, ptr %110, align 8, !tbaa !455
  %112 = add i64 %111, 1
  store i64 %112, ptr %110, align 8, !tbaa !455
  %113 = load ptr, ptr %6, align 8, !tbaa !8
  %114 = load i64, ptr %17, align 8, !tbaa !3
  %115 = load i64, ptr %8, align 8, !tbaa !3
  %116 = load ptr, ptr %9, align 8, !tbaa !13
  %117 = load ptr, ptr %10, align 8, !tbaa !8
  call void @_ZN11duckdb_zstdL28ZSTD_deriveBlockSplitsHelperEPNS_14seqStoreSplitsEmmPNS_11ZSTD_CCtx_sEPKNS_10seqStore_tE(ptr noundef %113, i64 noundef %114, i64 noundef %115, ptr noundef %116, ptr noundef %117)
  br label %118

118:                                              ; preds = %94, %85
  store i32 0, ptr %18, align 4
  br label %119

119:                                              ; preds = %118, %84, %47
  call void @llvm.lifetime.end.p0(i64 8, ptr %17) #16
  call void @llvm.lifetime.end.p0(i64 8, ptr %16) #16
  call void @llvm.lifetime.end.p0(i64 8, ptr %15) #16
  call void @llvm.lifetime.end.p0(i64 8, ptr %14) #16
  call void @llvm.lifetime.end.p0(i64 8, ptr %13) #16
  call void @llvm.lifetime.end.p0(i64 8, ptr %12) #16
  call void @llvm.lifetime.end.p0(i64 8, ptr %11) #16
  %120 = load i32, ptr %18, align 4
  switch i32 %120, label %122 [
    i32 0, label %121
    i32 1, label %121
  ]

121:                                              ; preds = %119, %119
  ret void

122:                                              ; preds = %119
  unreachable
}