; Function Attrs: mustprogress uwtable
define internal fastcc void @_ZN11duckdb_zstdL28ZSTD_deriveBlockSplitsHelperEPNS_14seqStoreSplitsEmmPNS_11ZSTD_CCtx_sEPKNS_10seqStore_tE(ptr noundef nonnull captures(none) %0, i64 noundef %1, i64 noundef range(i64 0, -9223372036854775808) %2, ptr noundef %3, ptr noundef readonly captures(none) %4) unnamed_addr #2 {
  %6 = getelementptr inbounds nuw i8, ptr %0, i64 8
  %7 = getelementptr inbounds nuw i8, ptr %3, i64 3736
  %8 = getelementptr inbounds nuw i8, ptr %3, i64 3816
  %9 = getelementptr inbounds nuw i8, ptr %3, i64 3896
  %10 = sub i64 %2, %1
  %11 = icmp ult i64 %10, 300
  br i1 %11, label %._crit_edge, label %.lr.ph.preheader

.lr.ph.preheader:                                 ; preds = %5
  %.pre = load i64, ptr %6, align 8, !tbaa !271
  br label %.lr.ph

.lr.ph:                                           ; preds = %.lr.ph.preheader, %tailrecurse
  %12 = phi i64 [ %29, %tailrecurse ], [ %.pre, %.lr.ph.preheader ]
  %.tr4853 = phi i64 [ %13, %tailrecurse ], [ %1, %.lr.ph.preheader ]
  %.in = add i64 %.tr4853, %2
  %13 = lshr i64 %.in, 1
  %14 = icmp ugt i64 %12, 195
  br i1 %14, label %._crit_edge, label %15

15:                                               ; preds = %.lr.ph
  tail call fastcc void @_ZN11duckdb_zstdL24ZSTD_deriveSeqStoreChunkEPNS_10seqStore_tEPKS0_mm(ptr noundef nonnull %7, ptr noundef %4, i64 noundef %.tr4853, i64 noundef %2)
  tail call fastcc void @_ZN11duckdb_zstdL24ZSTD_deriveSeqStoreChunkEPNS_10seqStore_tEPKS0_mm(ptr noundef nonnull %8, ptr noundef %4, i64 noundef %.tr4853, i64 noundef %13)
  tail call fastcc void @_ZN11duckdb_zstdL24ZSTD_deriveSeqStoreChunkEPNS_10seqStore_tEPKS0_mm(ptr noundef nonnull %9, ptr noundef %4, i64 noundef %13, i64 noundef %2)
  %16 = tail call fastcc noundef i64 @_ZN11duckdb_zstdL50ZSTD_buildEntropyStatisticsAndEstimateSubBlockSizeEPNS_10seqStore_tEPNS_11ZSTD_CCtx_sE(ptr noundef nonnull %7, ptr noundef %3)
  %17 = tail call fastcc noundef i64 @_ZN11duckdb_zstdL50ZSTD_buildEntropyStatisticsAndEstimateSubBlockSizeEPNS_10seqStore_tEPNS_11ZSTD_CCtx_sE(ptr noundef nonnull %8, ptr noundef %3)
  %18 = tail call fastcc noundef i64 @_ZN11duckdb_zstdL50ZSTD_buildEntropyStatisticsAndEstimateSubBlockSizeEPNS_10seqStore_tEPNS_11ZSTD_CCtx_sE(ptr noundef nonnull %9, ptr noundef %3)
  %19 = icmp ult i64 %16, -119
  %20 = icmp ult i64 %17, -119
  %or.cond52 = and i1 %19, %20
  br i1 %or.cond52, label %21, label %._crit_edge

21:                                               ; preds = %15
  %22 = icmp ult i64 %18, -119
  %23 = add i64 %18, %17
  %24 = icmp ult i64 %23, %16
  %or.cond = and i1 %22, %24
  br i1 %or.cond, label %tailrecurse, label %._crit_edge

tailrecurse:                                      ; preds = %21
  tail call fastcc void @_ZN11duckdb_zstdL28ZSTD_deriveBlockSplitsHelperEPNS_14seqStoreSplitsEmmPNS_11ZSTD_CCtx_sEPKNS_10seqStore_tE(ptr noundef %0, i64 noundef %.tr4853, i64 noundef %13, ptr noundef nonnull %3, ptr noundef %4)
  %25 = trunc i64 %13 to i32
  %26 = load ptr, ptr %0, align 8, !tbaa !269
  %27 = load i64, ptr %6, align 8, !tbaa !271
  %28 = getelementptr inbounds nuw i32, ptr %26, i64 %27
  store i32 %25, ptr %28, align 4, !tbaa !62
  %29 = add i64 %27, 1
  store i64 %29, ptr %6, align 8, !tbaa !271
  %30 = sub nsw i64 %2, %13
  %31 = icmp ult i64 %30, 300
  br i1 %31, label %._crit_edge, label %.lr.ph

._crit_edge:                                      ; preds = %tailrecurse, %.lr.ph, %21, %15, %5
  ret void
}